; ModuleID = '35/2174.c'
source_filename = "35/2174.c"
target datalayout = "e-m:e-p270:32:32-p271:32:32-p272:64:64-i64:64-f80:128-n8:16:32:64-S128"
target triple = "x86_64-pc-linux-gnu"

@.str = private unnamed_addr constant [6 x i8] c"%d,%d\00", align 1
@.str.1 = private unnamed_addr constant [3 x i8] c"%d\00", align 1
@.str.2 = private unnamed_addr constant [6 x i8] c"%d+%d\00", align 1
@.str.3 = private unnamed_addr constant [3 x i8] c"No\00", align 1

; Function Attrs: noinline nounwind uwtable
define dso_local i32 @main() #0 {
  %1 = alloca i32, align 4
  %2 = alloca i32, align 4
  %3 = alloca i32, align 4
  %4 = alloca [8 x [8 x i32]], align 16
  %5 = alloca i32, align 4
  %6 = alloca i32, align 4
  %7 = alloca i32, align 4
  %8 = alloca i32, align 4
  %9 = alloca i32, align 4
  %10 = alloca i32, align 4
  %11 = alloca i32, align 4
  store i32 0, i32* %1, align 4
  %12 = bitcast [8 x [8 x i32]]* %4 to i8*
  call void @llvm.memset.p0i8.i64(i8* align 16 %12, i8 0, i64 256, i1 false)
  store i32 0, i32* %5, align 4
  store i32 0, i32* %6, align 4
  store i32 0, i32* %7, align 4
  store i32 0, i32* %8, align 4
  store i32 0, i32* %9, align 4
  store i32 0, i32* %10, align 4
  store i32 0, i32* %11, align 4
  %13 = call i32 (i8*, ...) @__isoc99_scanf(i8* getelementptr inbounds ([6 x i8], [6 x i8]* @.str, i64 0, i64 0), i32* %2, i32* %3)
  store i32 0, i32* %5, align 4
  br label %14

14:                                               ; preds = %37, %0
  %15 = load i32, i32* %5, align 4
  %16 = load i32, i32* %2, align 4
  %17 = sub nsw i32 %16, 1
  %18 = icmp sle i32 %15, %17
  br i1 %18, label %19, label %40

19:                                               ; preds = %14
  store i32 0, i32* %6, align 4
  br label %20

20:                                               ; preds = %33, %19
  %21 = load i32, i32* %6, align 4
  %22 = load i32, i32* %3, align 4
  %23 = sub nsw i32 %22, 1
  %24 = icmp sle i32 %21, %23
  br i1 %24, label %25, label %36

25:                                               ; preds = %20
  %26 = load i32, i32* %5, align 4
  %27 = sext i32 %26 to i64
  %28 = getelementptr inbounds [8 x [8 x i32]], [8 x [8 x i32]]* %4, i64 0, i64 %27
  %29 = load i32, i32* %6, align 4
  %30 = sext i32 %29 to i64
  %31 = getelementptr inbounds [8 x i32], [8 x i32]* %28, i64 0, i64 %30
  %32 = call i32 (i8*, ...) @__isoc99_scanf(i8* getelementptr inbounds ([3 x i8], [3 x i8]* @.str.1, i64 0, i64 0), i32* %31)
  br label %33

33:                                               ; preds = %25
  %34 = load i32, i32* %6, align 4
  %35 = add nsw i32 %34, 1
  store i32 %35, i32* %6, align 4
  br label %20

36:                                               ; preds = %20
  br label %37

37:                                               ; preds = %36
  %38 = load i32, i32* %5, align 4
  %39 = add nsw i32 %38, 1
  store i32 %39, i32* %5, align 4
  br label %14

40:                                               ; preds = %14
  store i32 0, i32* %5, align 4
  br label %41

41:                                               ; preds = %116, %40
  %42 = load i32, i32* %5, align 4
  %43 = load i32, i32* %2, align 4
  %44 = sub nsw i32 %43, 1
  %45 = icmp sle i32 %42, %44
  br i1 %45, label %46, label %119

46:                                               ; preds = %41
  store i32 0, i32* %6, align 4
  br label %47

47:                                               ; preds = %75, %46
  %48 = load i32, i32* %6, align 4
  %49 = load i32, i32* %3, align 4
  %50 = sub nsw i32 %49, 1
  %51 = icmp sle i32 %48, %50
  br i1 %51, label %52, label %78

52:                                               ; preds = %47
  %53 = load i32, i32* %10, align 4
  %54 = load i32, i32* %5, align 4
  %55 = sext i32 %54 to i64
  %56 = getelementptr inbounds [8 x [8 x i32]], [8 x [8 x i32]]* %4, i64 0, i64 %55
  %57 = load i32, i32* %6, align 4
  %58 = sext i32 %57 to i64
  %59 = getelementptr inbounds [8 x i32], [8 x i32]* %56, i64 0, i64 %58
  %60 = load i32, i32* %59, align 4
  %61 = icmp slt i32 %53, %60
  br i1 %61, label %62, label %74

62:                                               ; preds = %52
  %63 = load i32, i32* %5, align 4
  %64 = sext i32 %63 to i64
  %65 = getelementptr inbounds [8 x [8 x i32]], [8 x [8 x i32]]* %4, i64 0, i64 %64
  %66 = load i32, i32* %6, align 4
  %67 = sext i32 %66 to i64
  %68 = getelementptr inbounds [8 x i32], [8 x i32]* %65, i64 0, i64 %67
  %69 = load i32, i32* %68, align 4
  store i32 %69, i32* %10, align 4
  %70 = load i32, i32* %5, align 4
  %71 = mul nsw i32 %70, 10
  %72 = load i32, i32* %6, align 4
  %73 = add nsw i32 %71, %72
  store i32 %73, i32* %11, align 4
  br label %74

74:                                               ; preds = %62, %52
  br label %75

75:                                               ; preds = %74
  %76 = load i32, i32* %6, align 4
  %77 = add nsw i32 %76, 1
  store i32 %77, i32* %6, align 4
  br label %47

78:                                               ; preds = %47
  store i32 0, i32* %7, align 4
  br label %79

79:                                               ; preds = %99, %78
  %80 = load i32, i32* %7, align 4
  %81 = load i32, i32* %2, align 4
  %82 = sub nsw i32 %81, 1
  %83 = icmp sle i32 %80, %82
  br i1 %83, label %84, label %102

84:                                               ; preds = %79
  %85 = load i32, i32* %7, align 4
  %86 = sext i32 %85 to i64
  %87 = getelementptr inbounds [8 x [8 x i32]], [8 x [8 x i32]]* %4, i64 0, i64 %86
  %88 = load i32, i32* %11, align 4
  %89 = srem i32 %88, 10
  %90 = sext i32 %89 to i64
  %91 = getelementptr inbounds [8 x i32], [8 x i32]* %87, i64 0, i64 %90
  %92 = load i32, i32* %91, align 4
  %93 = load i32, i32* %10, align 4
  %94 = icmp sge i32 %92, %93
  br i1 %94, label %95, label %98

95:                                               ; preds = %84
  %96 = load i32, i32* %8, align 4
  %97 = add nsw i32 %96, 1
  store i32 %97, i32* %8, align 4
  br label %98

98:                                               ; preds = %95, %84
  br label %99

99:                                               ; preds = %98
  %100 = load i32, i32* %7, align 4
  %101 = add nsw i32 %100, 1
  store i32 %101, i32* %7, align 4
  br label %79

102:                                              ; preds = %79
  %103 = load i32, i32* %8, align 4
  %104 = load i32, i32* %2, align 4
  %105 = icmp eq i32 %103, %104
  br i1 %105, label %106, label %112

106:                                              ; preds = %102
  %107 = load i32, i32* %11, align 4
  %108 = sdiv i32 %107, 10
  %109 = load i32, i32* %11, align 4
  %110 = srem i32 %109, 10
  %111 = call i32 (i8*, ...) @printf(i8* getelementptr inbounds ([6 x i8], [6 x i8]* @.str.2, i64 0, i64 0), i32 %108, i32 %110)
  br label %115

112:                                              ; preds = %102
  %113 = load i32, i32* %9, align 4
  %114 = add nsw i32 %113, 1
  store i32 %114, i32* %9, align 4
  br label %115

115:                                              ; preds = %112, %106
  store i32 0, i32* %10, align 4
  store i32 0, i32* %8, align 4
  br label %116

116:                                              ; preds = %115
  %117 = load i32, i32* %5, align 4
  %118 = add nsw i32 %117, 1
  store i32 %118, i32* %5, align 4
  br label %41

119:                                              ; preds = %41
  %120 = load i32, i32* %9, align 4
  %121 = load i32, i32* %2, align 4
  %122 = icmp eq i32 %120, %121
  br i1 %122, label %123, label %125

123:                                              ; preds = %119
  %124 = call i32 (i8*, ...) @printf(i8* getelementptr inbounds ([3 x i8], [3 x i8]* @.str.3, i64 0, i64 0))
  br label %125

125:                                              ; preds = %123, %119
  %126 = load i32, i32* %1, align 4
  ret i32 %126
}

; Function Attrs: argmemonly nounwind willreturn
declare void @llvm.memset.p0i8.i64(i8* nocapture writeonly, i8, i64, i1 immarg) #1

declare dso_local i32 @__isoc99_scanf(i8*, ...) #2

declare dso_local i32 @printf(i8*, ...) #2


!llvm.module.flags = !{!0}
!llvm.ident = !{!1}

!0 = !{i32 1, !"wchar_size", i32 4}
!1 = !{!"clang version 10.0.0-4ubuntu1 "}
